target datalayout = "e-m:e-p270:32:32-p271:32:32-p272:64:64-i64:64-i128:128-f80:128-n8:16:32:64-S128"
target triple = "x86_64-pc-linux-gnu"

%struct.HeapScanDescData = type { %struct.TableScanDescData, i32, i32, i32, i8, i16, i32, i32, ptr, %struct.HeapTupleData, ptr, i32, i32, ptr, i32, i32, [291 x i16] }
%struct.TableScanDescData = type { ptr, ptr, i32, ptr, %union.anon, i32, ptr }
%union.anon = type { %struct.TBMIterator }
%struct.TBMIterator = type { i8, %union.anon.0 }
%union.anon.0 = type { ptr }
%struct.HeapTupleData = type { i32, %struct.ItemPointerData, i32, ptr }
%struct.ItemPointerData = type { %struct.BlockIdData, i16 }
%struct.BlockIdData = type { i16, i16 }

; Function Attrs: inlinehint nounwind uwtable
define internal i32 @heapgettup_advance_block(ptr noundef %0, i32 noundef %1, i32 noundef %2) #3 {
  %4 = alloca i32, align 4
  %5 = alloca ptr, align 8
  %6 = alloca i32, align 4
  %7 = alloca i32, align 4
  store ptr %0, ptr %5, align 8
  store i32 %1, ptr %6, align 4
  store i32 %2, ptr %7, align 4
  %8 = load i32, ptr %7, align 4
  %9 = icmp eq i32 %8, 1
  %10 = zext i1 %9 to i32
  %11 = icmp ne i32 %10, 0
  %12 = zext i1 %11 to i32
  %13 = sext i32 %12 to i64
  %14 = call i64 @llvm.expect.i64(i64 %13, i64 1)
  %15 = icmp ne i64 %14, 0
  br i1 %15, label %16, label %60

16:                                               ; preds = %3
  %17 = load i32, ptr %6, align 4
  %18 = add i32 %17, 1
  store i32 %18, ptr %6, align 4
  %19 = load i32, ptr %6, align 4
  %20 = load ptr, ptr %5, align 8
  %21 = getelementptr inbounds nuw %struct.HeapScanDescData, ptr %20, i32 0, i32 1
  %22 = load i32, ptr %21, align 8
  %23 = icmp uge i32 %19, %22
  br i1 %23, label %24, label %25

24:                                               ; preds = %16
  store i32 0, ptr %6, align 4
  br label %25

25:                                               ; preds = %24, %16
  %26 = load ptr, ptr %5, align 8
  %27 = getelementptr inbounds nuw %struct.HeapScanDescData, ptr %26, i32 0, i32 0
  %28 = getelementptr inbounds nuw %struct.TableScanDescData, ptr %27, i32 0, i32 5
  %29 = load i32, ptr %28, align 8
  %30 = and i32 %29, 128
  %31 = icmp ne i32 %30, 0
  br i1 %31, label %32, label %38

32:                                               ; preds = %25
  %33 = load ptr, ptr %5, align 8
  %34 = getelementptr inbounds nuw %struct.HeapScanDescData, ptr %33, i32 0, i32 0
  %35 = getelementptr inbounds nuw %struct.TableScanDescData, ptr %34, i32 0, i32 0
  %36 = load ptr, ptr %35, align 8
  %37 = load i32, ptr %6, align 4
  call void @ss_report_location(ptr noundef %36, i32 noundef %37)
  br label %38

38:                                               ; preds = %32, %25
  %39 = load i32, ptr %6, align 4
  %40 = load ptr, ptr %5, align 8
  %41 = getelementptr inbounds nuw %struct.HeapScanDescData, ptr %40, i32 0, i32 2
  %42 = load i32, ptr %41, align 4
  %43 = icmp eq i32 %39, %42
  br i1 %43, label %44, label %45

44:                                               ; preds = %38
  store i32 -1, ptr %4, align 4
  br label %91

45:                                               ; preds = %38
  %46 = load ptr, ptr %5, align 8
  %47 = getelementptr inbounds nuw %struct.HeapScanDescData, ptr %46, i32 0, i32 3
  %48 = load i32, ptr %47, align 8
  %49 = icmp ne i32 %48, -1
  br i1 %49, label %50, label %58

50:                                               ; preds = %45
  %51 = load ptr, ptr %5, align 8
  %52 = getelementptr inbounds nuw %struct.HeapScanDescData, ptr %51, i32 0, i32 3
  %53 = load i32, ptr %52, align 8
  %54 = add i32 %53, -1
  store i32 %54, ptr %52, align 8
  %55 = icmp eq i32 %54, 0
  br i1 %55, label %56, label %57

56:                                               ; preds = %50
  store i32 -1, ptr %4, align 4
  br label %91

57:                                               ; preds = %50
  br label %58

58:                                               ; preds = %57, %45
  %59 = load i32, ptr %6, align 4
  store i32 %59, ptr %4, align 4
  br label %91

60:                                               ; preds = %3
  %61 = load i32, ptr %6, align 4
  %62 = load ptr, ptr %5, align 8
  %63 = getelementptr inbounds nuw %struct.HeapScanDescData, ptr %62, i32 0, i32 2
  %64 = load i32, ptr %63, align 4
  %65 = icmp eq i32 %61, %64
  br i1 %65, label %66, label %67

66:                                               ; preds = %60
  store i32 -1, ptr %4, align 4
  br label %91

67:                                               ; preds = %60
  %68 = load ptr, ptr %5, align 8
  %69 = getelementptr inbounds nuw %struct.HeapScanDescData, ptr %68, i32 0, i32 3
  %70 = load i32, ptr %69, align 8
  %71 = icmp ne i32 %70, -1
  br i1 %71, label %72, label %80

72:                                               ; preds = %67
  %73 = load ptr, ptr %5, align 8
  %74 = getelementptr inbounds nuw %struct.HeapScanDescData, ptr %73, i32 0, i32 3
  %75 = load i32, ptr %74, align 8
  %76 = add i32 %75, -1
  store i32 %76, ptr %74, align 8
  %77 = icmp eq i32 %76, 0
  br i1 %77, label %78, label %79

78:                                               ; preds = %72
  store i32 -1, ptr %4, align 4
  br label %91

79:                                               ; preds = %72
  br label %80

80:                                               ; preds = %79, %67
  %81 = load i32, ptr %6, align 4
  %82 = icmp eq i32 %81, 0
  br i1 %82, label %83, label %87

83:                                               ; preds = %80
  %84 = load ptr, ptr %5, align 8
  %85 = getelementptr inbounds nuw %struct.HeapScanDescData, ptr %84, i32 0, i32 1
  %86 = load i32, ptr %85, align 8
  store i32 %86, ptr %6, align 4
  br label %87

87:                                               ; preds = %83, %80
  %88 = load i32, ptr %6, align 4
  %89 = add i32 %88, -1
  store i32 %89, ptr %6, align 4
  %90 = load i32, ptr %6, align 4
  store i32 %90, ptr %4, align 4
  br label %91

91:                                               ; preds = %87, %78, %66, %58, %56, %44
  %92 = load i32, ptr %4, align 4
  ret i32 %92
}

; Function Attrs: nounwind uwtable
define internal i32 @heap_scan_stream_read_next_serial(ptr noundef %0, ptr noundef %1, ptr noundef %2) #0 {
  %4 = alloca ptr, align 8
  %5 = alloca ptr, align 8
  %6 = alloca ptr, align 8
  %7 = alloca ptr, align 8
  store ptr %0, ptr %4, align 8
  store ptr %1, ptr %5, align 8
  store ptr %2, ptr %6, align 8
  call void @llvm.lifetime.start.p0(i64 8, ptr %7) #10
  %8 = load ptr, ptr %5, align 8
  store ptr %8, ptr %7, align 8
  %9 = load ptr, ptr %7, align 8
  %10 = getelementptr inbounds nuw %struct.HeapScanDescData, ptr %9, i32 0, i32 4
  %11 = load i8, ptr %10, align 4, !range !4, !noundef !5
  %12 = trunc i8 %11 to i1
  %13 = xor i1 %12, true
  %14 = zext i1 %13 to i32
  %15 = icmp ne i32 %14, 0
  %16 = zext i1 %15 to i32
  %17 = sext i32 %16 to i64
  %18 = call i64 @llvm.expect.i64(i64 %17, i64 0)
  %19 = icmp ne i64 %18, 0
  br i1 %19, label %20, label %30

20:                                               ; preds = %3
  %21 = load ptr, ptr %7, align 8
  %22 = load ptr, ptr %7, align 8
  %23 = getelementptr inbounds nuw %struct.HeapScanDescData, ptr %22, i32 0, i32 11
  %24 = load i32, ptr %23, align 8
  %25 = call i32 @heapgettup_initial_block(ptr noundef %21, i32 noundef %24)
  %26 = load ptr, ptr %7, align 8
  %27 = getelementptr inbounds nuw %struct.HeapScanDescData, ptr %26, i32 0, i32 12
  store i32 %25, ptr %27, align 4
  %28 = load ptr, ptr %7, align 8
  %29 = getelementptr inbounds nuw %struct.HeapScanDescData, ptr %28, i32 0, i32 4
  store i8 1, ptr %29, align 4
  br label %41

30:                                               ; preds = %3
  %31 = load ptr, ptr %7, align 8
  %32 = load ptr, ptr %7, align 8
  %33 = getelementptr inbounds nuw %struct.HeapScanDescData, ptr %32, i32 0, i32 12
  %34 = load i32, ptr %33, align 4
  %35 = load ptr, ptr %7, align 8
  %36 = getelementptr inbounds nuw %struct.HeapScanDescData, ptr %35, i32 0, i32 11
  %37 = load i32, ptr %36, align 8
  %38 = call i32 @heapgettup_advance_block(ptr noundef %31, i32 noundef %34, i32 noundef %37)
  %39 = load ptr, ptr %7, align 8
  %40 = getelementptr inbounds nuw %struct.HeapScanDescData, ptr %39, i32 0, i32 12
  store i32 %38, ptr %40, align 4
  br label %41

41:                                               ; preds = %30, %20
  %42 = load ptr, ptr %7, align 8
  %43 = getelementptr inbounds nuw %struct.HeapScanDescData, ptr %42, i32 0, i32 12
  %44 = load i32, ptr %43, align 4
  call void @llvm.lifetime.end.p0(i64 8, ptr %7) #10
  ret i32 %44
}