; Function Attrs: nounwind uwtable
define internal i32 @heap_scan_stream_read_next_serial(ptr readnone captures(none) %0, ptr noundef captures(none) %1, ptr readnone captures(none) %2) #2 {
  %4 = getelementptr inbounds nuw i8, ptr %1, i64 76
  %5 = load i8, ptr %4, align 4, !range !6, !noundef !7
  %6 = trunc nuw i8 %5 to i1
  br i1 %6, label %12, label %7, !prof !11

7:                                                ; preds = %3
  %8 = getelementptr inbounds nuw i8, ptr %1, i64 128
  %9 = load i32, ptr %8, align 8
  %10 = tail call fastcc i32 @heapgettup_initial_block(ptr noundef nonnull %1, i32 noundef %9)
  %11 = getelementptr inbounds nuw i8, ptr %1, i64 132
  store i32 %10, ptr %11, align 4
  store i8 1, ptr %4, align 4
  br label %55

12:                                               ; preds = %3
  %13 = getelementptr inbounds nuw i8, ptr %1, i64 132
  %14 = load i32, ptr %13, align 4
  %15 = getelementptr inbounds nuw i8, ptr %1, i64 128
  %16 = load i32, ptr %15, align 8
  %17 = icmp eq i32 %16, 1
  br i1 %17, label %18, label %38, !prof !11

18:                                               ; preds = %12
  %19 = add i32 %14, 1
  %20 = getelementptr inbounds nuw i8, ptr %1, i64 64
  %21 = load i32, ptr %20, align 8
  %.not24.i = icmp ult i32 %19, %21
  %spec.store.select.i = select i1 %.not24.i, i32 %19, i32 0
  %22 = getelementptr inbounds nuw i8, ptr %1, i64 48
  %23 = load i32, ptr %22, align 8
  %24 = and i32 %23, 128
  %.not25.i = icmp eq i32 %24, 0
  br i1 %.not25.i, label %27, label %25

25:                                               ; preds = %18
  %26 = load ptr, ptr %1, align 8
  tail call void @ss_report_location(ptr noundef %26, i32 noundef %spec.store.select.i) #13
  br label %27

27:                                               ; preds = %25, %18
  %28 = getelementptr inbounds nuw i8, ptr %1, i64 68
  %29 = load i32, ptr %28, align 4
  %30 = icmp eq i32 %spec.store.select.i, %29
  br i1 %30, label %heapgettup_advance_block.exit, label %31

31:                                               ; preds = %27
  %32 = getelementptr inbounds nuw i8, ptr %1, i64 72
  %33 = load i32, ptr %32, align 8
  %.not26.i = icmp eq i32 %33, -1
  br i1 %.not26.i, label %37, label %34

34:                                               ; preds = %31
  %35 = add i32 %33, -1
  store i32 %35, ptr %32, align 8
  %36 = icmp eq i32 %35, 0
  br i1 %36, label %heapgettup_advance_block.exit, label %37

37:                                               ; preds = %34, %31
  br label %heapgettup_advance_block.exit

38:                                               ; preds = %12
  %39 = getelementptr inbounds nuw i8, ptr %1, i64 68
  %40 = load i32, ptr %39, align 4
  %41 = icmp eq i32 %14, %40
  br i1 %41, label %heapgettup_advance_block.exit, label %42

42:                                               ; preds = %38
  %43 = getelementptr inbounds nuw i8, ptr %1, i64 72
  %44 = load i32, ptr %43, align 8
  %.not.i = icmp eq i32 %44, -1
  br i1 %.not.i, label %48, label %45

45:                                               ; preds = %42
  %46 = add i32 %44, -1
  store i32 %46, ptr %43, align 8
  %47 = icmp eq i32 %46, 0
  br i1 %47, label %heapgettup_advance_block.exit, label %48

48:                                               ; preds = %45, %42
  %49 = icmp eq i32 %14, 0
  br i1 %49, label %50, label %53

50:                                               ; preds = %48
  %51 = getelementptr inbounds nuw i8, ptr %1, i64 64
  %52 = load i32, ptr %51, align 8
  br label %53

53:                                               ; preds = %50, %48
  %.020.i = phi i32 [ %52, %50 ], [ %14, %48 ]
  %54 = add i32 %.020.i, -1
  br label %heapgettup_advance_block.exit

heapgettup_advance_block.exit:                    ; preds = %27, %34, %37, %38, %45, %53
  %.0.i = phi i32 [ %spec.store.select.i, %37 ], [ %54, %53 ], [ -1, %27 ], [ -1, %34 ], [ -1, %38 ], [ -1, %45 ]
  store i32 %.0.i, ptr %13, align 4
  br label %55

55:                                               ; preds = %heapgettup_advance_block.exit, %7
  %56 = phi i32 [ %.0.i, %heapgettup_advance_block.exit ], [ %10, %7 ]
  ret i32 %56
}